target datalayout = "e-m:e-p270:32:32-p271:32:32-p272:64:64-i64:64-i128:128-f80:128-n8:16:32:64-S128"
target triple = "x86_64-pc-linux-gnu"

%"class.std::__shared_count" = type { ptr }
%"class.std::shared_ptr.15" = type { %"class.std::__shared_ptr.16" }
%"class.std::__shared_ptr.16" = type { ptr, %"class.std::__shared_count" }
%"class.arrow::RecordBatch" = type { ptr, %"class.std::shared_ptr.21", i64 }
%"class.std::shared_ptr.21" = type { %"class.std::__shared_ptr.22" }
%"class.std::__shared_ptr.22" = type { ptr, %"class.std::__shared_count" }

; Function Attrs: mustprogress nounwind uwtable
define linkonce_odr noundef ptr @_ZNKSt12__shared_ptrIN5arrow5ArrayELN9__gnu_cxx12_Lock_policyE2EE3getEv(ptr noundef nonnull align 8 dereferenceable(16) %0) #0 comdat align 2 {
  %2 = alloca ptr, align 8
  store ptr %0, ptr %2, align 8, !tbaa !392
  %3 = load ptr, ptr %2, align 8
  %4 = getelementptr inbounds nuw %"class.std::__shared_ptr.16", ptr %3, i32 0, i32 0
  %5 = load ptr, ptr %4, align 8, !tbaa !394
  ret ptr %5
}

; Function Attrs: mustprogress nounwind uwtable
define linkonce_odr noundef ptr @_ZNKSt12__shared_ptrIN5arrow6SchemaELN9__gnu_cxx12_Lock_policyE2EE3getEv(ptr noundef nonnull align 8 dereferenceable(16) %0) #0 comdat align 2 {
  %2 = alloca ptr, align 8
  store ptr %0, ptr %2, align 8, !tbaa !134
  %3 = load ptr, ptr %2, align 8
  %4 = getelementptr inbounds nuw %"class.std::__shared_ptr.22", ptr %3, i32 0, i32 0
  %5 = load ptr, ptr %4, align 8, !tbaa !396
  ret ptr %5
}

; Function Attrs: mustprogress nounwind uwtable
define linkonce_odr noundef ptr @_ZNKSt19__shared_ptr_accessIN5arrow5ArrayELN9__gnu_cxx12_Lock_policyE2ELb0ELb0EE6_M_getEv(ptr noundef nonnull align 1 dereferenceable(1) %0) #0 comdat align 2 {
  %2 = alloca ptr, align 8
  store ptr %0, ptr %2, align 8, !tbaa !61
  %3 = load ptr, ptr %2, align 8
  %4 = call noundef ptr @_ZNKSt12__shared_ptrIN5arrow5ArrayELN9__gnu_cxx12_Lock_policyE2EE3getEv(ptr noundef nonnull align 8 dereferenceable(16) %3) #20
  ret ptr %4
}

; Function Attrs: mustprogress nounwind uwtable
define linkonce_odr noundef ptr @_ZNKSt19__shared_ptr_accessIN5arrow6SchemaELN9__gnu_cxx12_Lock_policyE2ELb0ELb0EE6_M_getEv(ptr noundef nonnull align 1 dereferenceable(1) %0) #0 comdat align 2 {
  %2 = alloca ptr, align 8
  store ptr %0, ptr %2, align 8, !tbaa !73
  %3 = load ptr, ptr %2, align 8
  %4 = call noundef ptr @_ZNKSt12__shared_ptrIN5arrow6SchemaELN9__gnu_cxx12_Lock_policyE2EE3getEv(ptr noundef nonnull align 8 dereferenceable(16) %3) #20
  ret ptr %4
}

; Function Attrs: mustprogress nounwind uwtable
define linkonce_odr noundef ptr @_ZNKSt19__shared_ptr_accessIN5arrow5ArrayELN9__gnu_cxx12_Lock_policyE2ELb0ELb0EEptEv(ptr noundef nonnull align 1 dereferenceable(1) %0) #0 comdat align 2 {
  %2 = alloca ptr, align 8
  store ptr %0, ptr %2, align 8, !tbaa !61
  %3 = load ptr, ptr %2, align 8
  %4 = call noundef ptr @_ZNKSt19__shared_ptr_accessIN5arrow5ArrayELN9__gnu_cxx12_Lock_policyE2ELb0ELb0EE6_M_getEv(ptr noundef nonnull align 1 dereferenceable(1) %3) #20
  ret ptr %4
}

; Function Attrs: mustprogress nounwind uwtable
define linkonce_odr noundef nonnull align 8 dereferenceable(32) ptr @_ZNKSt19__shared_ptr_accessIN5arrow6SchemaELN9__gnu_cxx12_Lock_policyE2ELb0ELb0EEdeEv(ptr noundef nonnull align 1 dereferenceable(1) %0) #0 comdat align 2 {
  %2 = alloca ptr, align 8
  store ptr %0, ptr %2, align 8, !tbaa !73
  %3 = load ptr, ptr %2, align 8
  br label %4

4:                                                ; preds = %1
  br label %5

5:                                                ; preds = %4
  br label %6

6:                                                ; preds = %5
  %7 = call noundef ptr @_ZNKSt19__shared_ptr_accessIN5arrow6SchemaELN9__gnu_cxx12_Lock_policyE2ELb0ELb0EE6_M_getEv(ptr noundef nonnull align 1 dereferenceable(1) %3) #20
  ret ptr %7
}

; Function Attrs: mustprogress nounwind uwtable
define linkonce_odr noundef nonnull align 8 dereferenceable(16) ptr @_ZNK5arrow11RecordBatch6schemaEv(ptr noundef nonnull align 8 dereferenceable(32) %0) #0 comdat align 2 {
  %2 = alloca ptr, align 8
  store ptr %0, ptr %2, align 8, !tbaa !53
  %3 = load ptr, ptr %2, align 8
  %4 = getelementptr inbounds nuw %"class.arrow::RecordBatch", ptr %3, i32 0, i32 1
  ret ptr %4
}

; Function Attrs: mustprogress nounwind uwtable
define linkonce_odr noundef ptr @_ZNKSt19__shared_ptr_accessIN5arrow6SchemaELN9__gnu_cxx12_Lock_policyE2ELb0ELb0EEptEv(ptr noundef nonnull align 1 dereferenceable(1) %0) #0 comdat align 2 {
  %2 = alloca ptr, align 8
  store ptr %0, ptr %2, align 8, !tbaa !73
  %3 = load ptr, ptr %2, align 8
  %4 = call noundef ptr @_ZNKSt19__shared_ptr_accessIN5arrow6SchemaELN9__gnu_cxx12_Lock_policyE2ELb0ELb0EE6_M_getEv(ptr noundef nonnull align 1 dereferenceable(1) %3) #20
  ret ptr %4
}

; Function Attrs: mustprogress nounwind uwtable
define linkonce_odr noundef i64 @_ZNK5arrow11RecordBatch8num_rowsEv(ptr noundef nonnull align 8 dereferenceable(32) %0) #0 comdat align 2 {
  %2 = alloca ptr, align 8
  store ptr %0, ptr %2, align 8, !tbaa !53
  %3 = load ptr, ptr %2, align 8
  %4 = getelementptr inbounds nuw %"class.arrow::RecordBatch", ptr %3, i32 0, i32 2
  %5 = load i64, ptr %4, align 8, !tbaa !77
  ret i64 %5
}

; Function Attrs: mustprogress uwtable
define noundef i32 @_ZNK5arrow11RecordBatch11num_columnsEv(ptr noundef nonnull align 8 dereferenceable(32) %0) #1 align 2 {
  %2 = alloca ptr, align 8
  store ptr %0, ptr %2, align 8, !tbaa !53
  %3 = load ptr, ptr %2, align 8
  %4 = getelementptr inbounds nuw %"class.arrow::RecordBatch", ptr %3, i32 0, i32 1
  %5 = call noundef ptr @_ZNKSt19__shared_ptr_accessIN5arrow6SchemaELN9__gnu_cxx12_Lock_policyE2ELb0ELb0EEptEv(ptr noundef nonnull align 1 dereferenceable(1) %4) #20
  %6 = call noundef i32 @_ZNK5arrow6Schema10num_fieldsEv(ptr noundef nonnull align 8 dereferenceable(32) %5)
  ret i32 %6
}

; Function Attrs: mustprogress uwtable
define noundef zeroext i1 @_ZNK5arrow11RecordBatch6EqualsERKS0_bRKNS_12EqualOptionsE(ptr noundef nonnull align 8 dereferenceable(32) %0, ptr noundef nonnull align 8 dereferenceable(32) %1, i1 noundef zeroext %2, ptr noundef nonnull align 8 dereferenceable(24) %3) #1 align 2 personality ptr @__gxx_personality_v0 {
  %5 = alloca i1, align 1
  %6 = alloca ptr, align 8
  %7 = alloca ptr, align 8
  %8 = alloca i8, align 1
  %9 = alloca ptr, align 8
  %10 = alloca i32, align 4
  %11 = alloca i32, align 4
  %12 = alloca %"class.std::shared_ptr.15", align 8
  %13 = alloca %"class.std::shared_ptr.15", align 8
  %14 = alloca ptr, align 8
  %15 = alloca i32, align 4
  store ptr %0, ptr %6, align 8, !tbaa !53
  store ptr %1, ptr %7, align 8, !tbaa !53
  %16 = zext i1 %2 to i8
  store i8 %16, ptr %8, align 1, !tbaa !206
  store ptr %3, ptr %9, align 8, !tbaa !213
  %17 = load ptr, ptr %6, align 8
  %18 = call noundef i32 @_ZNK5arrow11RecordBatch11num_columnsEv(ptr noundef nonnull align 8 dereferenceable(32) %17)
  %19 = load ptr, ptr %7, align 8, !tbaa !53
  %20 = call noundef i32 @_ZNK5arrow11RecordBatch11num_columnsEv(ptr noundef nonnull align 8 dereferenceable(32) %19)
  %21 = icmp ne i32 %18, %20
  br i1 %21, label %28, label %22

22:                                               ; preds = %4
  %23 = getelementptr inbounds nuw %"class.arrow::RecordBatch", ptr %17, i32 0, i32 2
  %24 = load i64, ptr %23, align 8, !tbaa !77
  %25 = load ptr, ptr %7, align 8, !tbaa !53
  %26 = call noundef i64 @_ZNK5arrow11RecordBatch8num_rowsEv(ptr noundef nonnull align 8 dereferenceable(32) %25)
  %27 = icmp ne i64 %24, %26
  br i1 %27, label %28, label %29

28:                                               ; preds = %22, %4
  store i1 false, ptr %5, align 1
  br label %90

29:                                               ; preds = %22
  %30 = getelementptr inbounds nuw %"class.arrow::RecordBatch", ptr %17, i32 0, i32 1
  %31 = call noundef ptr @_ZNKSt19__shared_ptr_accessIN5arrow6SchemaELN9__gnu_cxx12_Lock_policyE2ELb0ELb0EEptEv(ptr noundef nonnull align 1 dereferenceable(1) %30) #20
  %32 = load ptr, ptr %7, align 8, !tbaa !53
  %33 = call noundef nonnull align 8 dereferenceable(16) ptr @_ZNK5arrow11RecordBatch6schemaEv(ptr noundef nonnull align 8 dereferenceable(32) %32)
  %34 = call noundef nonnull align 8 dereferenceable(32) ptr @_ZNKSt19__shared_ptr_accessIN5arrow6SchemaELN9__gnu_cxx12_Lock_policyE2ELb0ELb0EEdeEv(ptr noundef nonnull align 1 dereferenceable(1) %33) #20
  %35 = load i8, ptr %8, align 1, !tbaa !206, !range !158, !noundef !159
  %36 = trunc i8 %35 to i1
  %37 = call noundef zeroext i1 @_ZNK5arrow6Schema6EqualsERKS0_b(ptr noundef nonnull align 8 dereferenceable(32) %31, ptr noundef nonnull align 8 dereferenceable(32) %34, i1 noundef zeroext %36)
  br i1 %37, label %39, label %38

38:                                               ; preds = %29
  store i1 false, ptr %5, align 1
  br label %90

39:                                               ; preds = %29
  %40 = load ptr, ptr %17, align 8, !tbaa !59
  %41 = getelementptr inbounds ptr, ptr %40, i64 16
  %42 = load ptr, ptr %41, align 8
  %43 = call noundef signext i8 %42(ptr noundef nonnull align 8 dereferenceable(32) %17)
  %44 = load ptr, ptr %7, align 8, !tbaa !53
  %45 = load ptr, ptr %44, align 8, !tbaa !59
  %46 = getelementptr inbounds ptr, ptr %45, i64 16
  %47 = load ptr, ptr %46, align 8
  %48 = call noundef signext i8 %47(ptr noundef nonnull align 8 dereferenceable(32) %44)
  %49 = icmp ne i8 %43, %48
  br i1 %49, label %50, label %51

50:                                               ; preds = %39
  store i1 false, ptr %5, align 1
  br label %90

51:                                               ; preds = %39
  call void @llvm.lifetime.start.p0(i64 4, ptr %10) #20
  store i32 0, ptr %10, align 4, !tbaa !8
  br label %52

52:                                               ; preds = %84, %51
  %53 = load i32, ptr %10, align 4, !tbaa !8
  %54 = call noundef i32 @_ZNK5arrow11RecordBatch11num_columnsEv(ptr noundef nonnull align 8 dereferenceable(32) %17)
  %55 = icmp slt i32 %53, %54
  br i1 %55, label %57, label %56

56:                                               ; preds = %52
  store i32 2, ptr %11, align 4
  br label %87

57:                                               ; preds = %52
  call void @llvm.lifetime.start.p0(i64 16, ptr %12) #20
  %58 = load i32, ptr %10, align 4, !tbaa !8
  %59 = load ptr, ptr %17, align 8, !tbaa !59
  %60 = getelementptr inbounds ptr, ptr %59, i64 3
  %61 = load ptr, ptr %60, align 8
  call void %61(ptr dead_on_unwind writable sret(%"class.std::shared_ptr.15") align 8 %12, ptr noundef nonnull align 8 dereferenceable(32) %17, i32 noundef %58)
  %62 = call noundef ptr @_ZNKSt19__shared_ptr_accessIN5arrow5ArrayELN9__gnu_cxx12_Lock_policyE2ELb0ELb0EEptEv(ptr noundef nonnull align 1 dereferenceable(1) %12) #20
  call void @llvm.lifetime.start.p0(i64 16, ptr %13) #20
  %63 = load ptr, ptr %7, align 8, !tbaa !53
  %64 = load i32, ptr %10, align 4, !tbaa !8
  %65 = load ptr, ptr %63, align 8, !tbaa !59
  %66 = getelementptr inbounds ptr, ptr %65, i64 3
  %67 = load ptr, ptr %66, align 8
  invoke void %67(ptr dead_on_unwind writable sret(%"class.std::shared_ptr.15") align 8 %13, ptr noundef nonnull align 8 dereferenceable(32) %63, i32 noundef %64)
          to label %68 unwind label %74

68:                                               ; preds = %57
  %69 = load ptr, ptr %9, align 8, !tbaa !213
  %70 = invoke noundef zeroext i1 @_ZNK5arrow5Array6EqualsERKSt10shared_ptrIS0_ERKNS_12EqualOptionsE(ptr noundef nonnull align 8 dereferenceable(32) %62, ptr noundef nonnull align 8 dereferenceable(16) %13, ptr noundef nonnull align 8 dereferenceable(24) %69)
          to label %71 unwind label %78

71:                                               ; preds = %68
  %72 = xor i1 %70, true
  call void @_ZNSt12__shared_ptrIN5arrow5ArrayELN9__gnu_cxx12_Lock_policyE2EED2Ev(ptr noundef nonnull align 8 dereferenceable(16) %13) #20
  call void @llvm.lifetime.end.p0(i64 16, ptr %13) #20
  call void @_ZNSt12__shared_ptrIN5arrow5ArrayELN9__gnu_cxx12_Lock_policyE2EED2Ev(ptr noundef nonnull align 8 dereferenceable(16) %12) #20
  call void @llvm.lifetime.end.p0(i64 16, ptr %12) #20
  br i1 %72, label %73, label %83

73:                                               ; preds = %71
  store i1 false, ptr %5, align 1
  store i32 1, ptr %11, align 4
  br label %87

74:                                               ; preds = %57
  %75 = landingpad { ptr, i32 }
          cleanup
  %76 = extractvalue { ptr, i32 } %75, 0
  store ptr %76, ptr %14, align 8
  %77 = extractvalue { ptr, i32 } %75, 1
  store i32 %77, ptr %15, align 4
  br label %82

78:                                               ; preds = %68
  %79 = landingpad { ptr, i32 }
          cleanup
  %80 = extractvalue { ptr, i32 } %79, 0
  store ptr %80, ptr %14, align 8
  %81 = extractvalue { ptr, i32 } %79, 1
  store i32 %81, ptr %15, align 4
  call void @_ZNSt12__shared_ptrIN5arrow5ArrayELN9__gnu_cxx12_Lock_policyE2EED2Ev(ptr noundef nonnull align 8 dereferenceable(16) %13) #20
  br label %82

82:                                               ; preds = %78, %74
  call void @llvm.lifetime.end.p0(i64 16, ptr %13) #20
  call void @_ZNSt12__shared_ptrIN5arrow5ArrayELN9__gnu_cxx12_Lock_policyE2EED2Ev(ptr noundef nonnull align 8 dereferenceable(16) %12) #20
  call void @llvm.lifetime.end.p0(i64 16, ptr %12) #20
  call void @llvm.lifetime.end.p0(i64 4, ptr %10) #20
  br label %92

83:                                               ; preds = %71
  br label %84

84:                                               ; preds = %83
  %85 = load i32, ptr %10, align 4, !tbaa !8
  %86 = add nsw i32 %85, 1
  store i32 %86, ptr %10, align 4, !tbaa !8
  br label %52, !llvm.loop !215

87:                                               ; preds = %73, %56
  call void @llvm.lifetime.end.p0(i64 4, ptr %10) #20
  %88 = load i32, ptr %11, align 4
  switch i32 %88, label %97 [
    i32 2, label %89
    i32 1, label %90
  ]

89:                                               ; preds = %87
  store i1 true, ptr %5, align 1
  br label %90

90:                                               ; preds = %89, %87, %50, %38, %28
  %91 = load i1, ptr %5, align 1
  ret i1 %91

92:                                               ; preds = %82
  %93 = load ptr, ptr %14, align 8
  %94 = load i32, ptr %15, align 4
  %95 = insertvalue { ptr, i32 } poison, ptr %93, 0
  %96 = insertvalue { ptr, i32 } %95, i32 %94, 1
  resume { ptr, i32 } %96

97:                                               ; preds = %87
  unreachable
}