; Function Attrs: mustprogress uwtable
define noundef zeroext i1 @_ZNK5arrow11RecordBatch6EqualsERKS0_bRKNS_12EqualOptionsE(ptr noundef nonnull align 8 dereferenceable(32) %0, ptr noundef nonnull align 8 dereferenceable(32) %1, i1 noundef zeroext %2, ptr noundef nonnull align 8 dereferenceable(24) %3) local_unnamed_addr #1 align 2 personality ptr @__gxx_personality_v0 {
  %5 = alloca %"class.std::shared_ptr.15", align 8
  %6 = alloca %"class.std::shared_ptr.15", align 8
  %7 = getelementptr inbounds nuw i8, ptr %0, i64 8
  %8 = load ptr, ptr %7, align 8, !tbaa !59
  %9 = tail call noundef i32 @_ZNK5arrow6Schema10num_fieldsEv(ptr noundef nonnull align 8 dereferenceable(32) %8)
  %10 = getelementptr inbounds nuw i8, ptr %1, i64 8
  %11 = load ptr, ptr %10, align 8, !tbaa !59
  %12 = tail call noundef i32 @_ZNK5arrow6Schema10num_fieldsEv(ptr noundef nonnull align 8 dereferenceable(32) %11)
  %.not = icmp eq i32 %9, %12
  br i1 %.not, label %13, label %.loopexit

13:                                               ; preds = %4
  %14 = getelementptr inbounds nuw i8, ptr %0, i64 24
  %15 = load i64, ptr %14, align 8, !tbaa !62
  %16 = getelementptr inbounds nuw i8, ptr %1, i64 24
  %17 = load i64, ptr %16, align 8, !tbaa !62
  %.not19 = icmp eq i64 %15, %17
  br i1 %.not19, label %18, label %.loopexit

18:                                               ; preds = %13
  %19 = load ptr, ptr %7, align 8, !tbaa !59
  %20 = load ptr, ptr %10, align 8, !tbaa !59
  %21 = tail call noundef zeroext i1 @_ZNK5arrow6Schema6EqualsERKS0_b(ptr noundef nonnull align 8 dereferenceable(32) %19, ptr noundef nonnull align 8 dereferenceable(32) %20, i1 noundef zeroext %2)
  br i1 %21, label %22, label %.loopexit

22:                                               ; preds = %18
  %23 = load ptr, ptr %0, align 8, !tbaa !56
  %24 = getelementptr inbounds nuw i8, ptr %23, i64 128
  %25 = load ptr, ptr %24, align 8
  %26 = tail call noundef signext i8 %25(ptr noundef nonnull align 8 dereferenceable(32) %0)
  %27 = load ptr, ptr %1, align 8, !tbaa !56
  %28 = getelementptr inbounds nuw i8, ptr %27, i64 128
  %29 = load ptr, ptr %28, align 8
  %30 = tail call noundef signext i8 %29(ptr noundef nonnull align 8 dereferenceable(32) %1)
  %.not20 = icmp eq i8 %26, %30
  br i1 %.not20, label %.preheader, label %.loopexit

.preheader:                                       ; preds = %22
  %31 = load ptr, ptr %7, align 8, !tbaa !59
  %32 = tail call noundef i32 @_ZNK5arrow6Schema10num_fieldsEv(ptr noundef nonnull align 8 dereferenceable(32) %31)
  %33 = icmp slt i32 %32, 1
  br i1 %33, label %.loopexit, label %.lr.ph

.lr.ph:                                           ; preds = %.preheader
  %34 = getelementptr inbounds nuw i8, ptr %6, i64 8
  %35 = getelementptr inbounds nuw i8, ptr %5, i64 8
  br label %40

36:                                               ; preds = %_ZNSt12__shared_ptrIN5arrow5ArrayELN9__gnu_cxx12_Lock_policyE2EED2Ev.exit26
  %37 = add nuw nsw i32 %.01727, 1
  %38 = load ptr, ptr %7, align 8, !tbaa !59
  %39 = call noundef i32 @_ZNK5arrow6Schema10num_fieldsEv(ptr noundef nonnull align 8 dereferenceable(32) %38)
  %.not29 = icmp slt i32 %37, %39
  br i1 %.not29, label %40, label %.loopexit, !llvm.loop !212

40:                                               ; preds = %.lr.ph, %36
  %.01727 = phi i32 [ 0, %.lr.ph ], [ %37, %36 ]
  call void @llvm.lifetime.start.p0(i64 16, ptr nonnull %5) #27
  %41 = load ptr, ptr %0, align 8, !tbaa !56
  %42 = getelementptr inbounds nuw i8, ptr %41, i64 24
  %43 = load ptr, ptr %42, align 8
  call void %43(ptr dead_on_unwind nonnull writable sret(%"class.std::shared_ptr.15") align 8 %5, ptr noundef nonnull align 8 dereferenceable(32) %0, i32 noundef %.01727)
  %44 = load ptr, ptr %5, align 8, !tbaa !40
  call void @llvm.lifetime.start.p0(i64 16, ptr nonnull %6) #27
  %45 = load ptr, ptr %1, align 8, !tbaa !56
  %46 = getelementptr inbounds nuw i8, ptr %45, i64 24
  %47 = load ptr, ptr %46, align 8
  invoke void %47(ptr dead_on_unwind nonnull writable sret(%"class.std::shared_ptr.15") align 8 %6, ptr noundef nonnull align 8 dereferenceable(32) %1, i32 noundef %.01727)
          to label %48 unwind label %95

48:                                               ; preds = %40
  %49 = invoke noundef zeroext i1 @_ZNK5arrow5Array6EqualsERKSt10shared_ptrIS0_ERKNS_12EqualOptionsE(ptr noundef nonnull align 8 dereferenceable(32) %44, ptr noundef nonnull align 8 dereferenceable(16) %6, ptr noundef nonnull align 8 dereferenceable(24) %3)
          to label %50 unwind label %97

50:                                               ; preds = %48
  %51 = load ptr, ptr %34, align 8, !tbaa !51
  %.not.i.i = icmp eq ptr %51, null
  br i1 %.not.i.i, label %_ZNSt12__shared_ptrIN5arrow5ArrayELN9__gnu_cxx12_Lock_policyE2EED2Ev.exit, label %52

52:                                               ; preds = %50
  %53 = getelementptr inbounds nuw i8, ptr %51, i64 8
  %54 = load atomic i64, ptr %53 acquire, align 8
  %55 = icmp eq i64 %54, 4294967297
  %56 = trunc i64 %54 to i32
  br i1 %55, label %57, label %65

57:                                               ; preds = %52
  store i32 0, ptr %53, align 8, !tbaa !53
  %58 = getelementptr inbounds nuw i8, ptr %51, i64 12
  store i32 0, ptr %58, align 4, !tbaa !55
  %59 = load ptr, ptr %51, align 8, !tbaa !56
  %60 = getelementptr inbounds nuw i8, ptr %59, i64 16
  %61 = load ptr, ptr %60, align 8
  call void %61(ptr noundef nonnull align 8 dereferenceable(16) %51) #27
  %62 = load ptr, ptr %51, align 8, !tbaa !56
  %63 = getelementptr inbounds nuw i8, ptr %62, i64 24
  %64 = load ptr, ptr %63, align 8
  call void %64(ptr noundef nonnull align 8 dereferenceable(16) %51) #27
  br label %_ZNSt12__shared_ptrIN5arrow5ArrayELN9__gnu_cxx12_Lock_policyE2EED2Ev.exit

65:                                               ; preds = %52
  %66 = load i8, ptr @__libc_single_threaded, align 1, !tbaa !39
  %.not.i.i.i = icmp eq i8 %66, 0
  br i1 %.not.i.i.i, label %69, label %67

67:                                               ; preds = %65
  %68 = add nsw i32 %56, -1
  store i32 %68, ptr %53, align 4, !tbaa !52
  br label %_ZN9__gnu_cxx27__exchange_and_add_dispatchEPii.exit.i.i.i

69:                                               ; preds = %65
  %70 = atomicrmw volatile add ptr %53, i32 -1 acq_rel, align 4
  br label %_ZN9__gnu_cxx27__exchange_and_add_dispatchEPii.exit.i.i.i

_ZN9__gnu_cxx27__exchange_and_add_dispatchEPii.exit.i.i.i: ; preds = %69, %67
  %.0.i.i.i.i = phi i32 [ %56, %67 ], [ %70, %69 ]
  %71 = icmp eq i32 %.0.i.i.i.i, 1
  br i1 %71, label %72, label %_ZNSt12__shared_ptrIN5arrow5ArrayELN9__gnu_cxx12_Lock_policyE2EED2Ev.exit, !prof !58

72:                                               ; preds = %_ZN9__gnu_cxx27__exchange_and_add_dispatchEPii.exit.i.i.i
  call void @_ZNSt16_Sp_counted_baseILN9__gnu_cxx12_Lock_policyE2EE24_M_release_last_use_coldEv(ptr noundef nonnull align 8 dereferenceable(16) %51) #27
  br label %_ZNSt12__shared_ptrIN5arrow5ArrayELN9__gnu_cxx12_Lock_policyE2EED2Ev.exit

_ZNSt12__shared_ptrIN5arrow5ArrayELN9__gnu_cxx12_Lock_policyE2EED2Ev.exit: ; preds = %50, %57, %_ZN9__gnu_cxx27__exchange_and_add_dispatchEPii.exit.i.i.i, %72
  call void @llvm.lifetime.end.p0(i64 16, ptr nonnull %6) #27
  %73 = load ptr, ptr %35, align 8, !tbaa !51
  %.not.i.i22 = icmp eq ptr %73, null
  br i1 %.not.i.i22, label %_ZNSt12__shared_ptrIN5arrow5ArrayELN9__gnu_cxx12_Lock_policyE2EED2Ev.exit26, label %74

74:                                               ; preds = %_ZNSt12__shared_ptrIN5arrow5ArrayELN9__gnu_cxx12_Lock_policyE2EED2Ev.exit
  %75 = getelementptr inbounds nuw i8, ptr %73, i64 8
  %76 = load atomic i64, ptr %75 acquire, align 8
  %77 = icmp eq i64 %76, 4294967297
  %78 = trunc i64 %76 to i32
  br i1 %77, label %79, label %87

79:                                               ; preds = %74
  store i32 0, ptr %75, align 8, !tbaa !53
  %80 = getelementptr inbounds nuw i8, ptr %73, i64 12
  store i32 0, ptr %80, align 4, !tbaa !55
  %81 = load ptr, ptr %73, align 8, !tbaa !56
  %82 = getelementptr inbounds nuw i8, ptr %81, i64 16
  %83 = load ptr, ptr %82, align 8
  call void %83(ptr noundef nonnull align 8 dereferenceable(16) %73) #27
  %84 = load ptr, ptr %73, align 8, !tbaa !56
  %85 = getelementptr inbounds nuw i8, ptr %84, i64 24
  %86 = load ptr, ptr %85, align 8
  call void %86(ptr noundef nonnull align 8 dereferenceable(16) %73) #27
  br label %_ZNSt12__shared_ptrIN5arrow5ArrayELN9__gnu_cxx12_Lock_policyE2EED2Ev.exit26

87:                                               ; preds = %74
  %88 = load i8, ptr @__libc_single_threaded, align 1, !tbaa !39
  %.not.i.i.i23 = icmp eq i8 %88, 0
  br i1 %.not.i.i.i23, label %91, label %89

89:                                               ; preds = %87
  %90 = add nsw i32 %78, -1
  store i32 %90, ptr %75, align 4, !tbaa !52
  br label %_ZN9__gnu_cxx27__exchange_and_add_dispatchEPii.exit.i.i.i24

91:                                               ; preds = %87
  %92 = atomicrmw volatile add ptr %75, i32 -1 acq_rel, align 4
  br label %_ZN9__gnu_cxx27__exchange_and_add_dispatchEPii.exit.i.i.i24

_ZN9__gnu_cxx27__exchange_and_add_dispatchEPii.exit.i.i.i24: ; preds = %91, %89
  %.0.i.i.i.i25 = phi i32 [ %78, %89 ], [ %92, %91 ]
  %93 = icmp eq i32 %.0.i.i.i.i25, 1
  br i1 %93, label %94, label %_ZNSt12__shared_ptrIN5arrow5ArrayELN9__gnu_cxx12_Lock_policyE2EED2Ev.exit26, !prof !58

94:                                               ; preds = %_ZN9__gnu_cxx27__exchange_and_add_dispatchEPii.exit.i.i.i24
  call void @_ZNSt16_Sp_counted_baseILN9__gnu_cxx12_Lock_policyE2EE24_M_release_last_use_coldEv(ptr noundef nonnull align 8 dereferenceable(16) %73) #27
  br label %_ZNSt12__shared_ptrIN5arrow5ArrayELN9__gnu_cxx12_Lock_policyE2EED2Ev.exit26

_ZNSt12__shared_ptrIN5arrow5ArrayELN9__gnu_cxx12_Lock_policyE2EED2Ev.exit26: ; preds = %_ZNSt12__shared_ptrIN5arrow5ArrayELN9__gnu_cxx12_Lock_policyE2EED2Ev.exit, %79, %_ZN9__gnu_cxx27__exchange_and_add_dispatchEPii.exit.i.i.i24, %94
  call void @llvm.lifetime.end.p0(i64 16, ptr nonnull %5) #27
  br i1 %49, label %36, label %.loopexit

95:                                               ; preds = %40
  %96 = landingpad { ptr, i32 }
          cleanup
  br label %99

97:                                               ; preds = %48
  %98 = landingpad { ptr, i32 }
          cleanup
  call void @_ZNSt12__shared_ptrIN5arrow5ArrayELN9__gnu_cxx12_Lock_policyE2EED2Ev(ptr noundef nonnull align 8 dereferenceable(16) %6) #27
  br label %99

99:                                               ; preds = %97, %95
  %.pn = phi { ptr, i32 } [ %98, %97 ], [ %96, %95 ]
  call void @llvm.lifetime.end.p0(i64 16, ptr nonnull %6) #27
  call void @_ZNSt12__shared_ptrIN5arrow5ArrayELN9__gnu_cxx12_Lock_policyE2EED2Ev(ptr noundef nonnull align 8 dereferenceable(16) %5) #27
  call void @llvm.lifetime.end.p0(i64 16, ptr nonnull %5) #27
  resume { ptr, i32 } %.pn

.loopexit:                                        ; preds = %_ZNSt12__shared_ptrIN5arrow5ArrayELN9__gnu_cxx12_Lock_policyE2EED2Ev.exit26, %36, %.preheader, %22, %18, %4, %13
  %.018 = phi i1 [ false, %13 ], [ false, %4 ], [ false, %18 ], [ false, %22 ], [ true, %.preheader ], [ %49, %36 ], [ %49, %_ZNSt12__shared_ptrIN5arrow5ArrayELN9__gnu_cxx12_Lock_policyE2EED2Ev.exit26 ]
  ret i1 %.018
}